target datalayout = "e-m:e-p270:32:32-p271:32:32-p272:64:64-i64:64-i128:128-f80:128-n8:16:32:64-S128"
target triple = "x86_64-pc-linux-gnu"

%struct.strvec = type { ptr, i64, i64 }
%struct.strbuf = type { i64, i64, ptr }
%struct.commit = type { %struct.object, i64, ptr, ptr, i32 }
%struct.object = type { i32, %struct.object_id }
%struct.object_id = type { [32 x i8], i32 }
%struct.oidset = type { %struct.kh_oid_set }
%struct.kh_oid_set = type { i32, i32, i32, i32, ptr, ptr, ptr }
%struct.commit_list = type { ptr, ptr }
%struct.rev_info = type { ptr, %struct.object_array, ptr, %struct.object_array, %struct.rev_cmdline_info, %struct.list_objects_filter_options, %struct.ref_exclusions, ptr, ptr, ptr, %struct.pathspec, i32, i32, i32, i32, i64, i32, i32, %struct.date_mode, i32, i32, i32, i32, ptr, i32, i32, ptr, ptr, i32, ptr, ptr, %struct.ident_split, ptr, i32, ptr, ptr, ptr, i32, i32, i32, ptr, %struct.grep_opt, ptr, i32, i32, i64, i64, i64, i32, i32, ptr, ptr, ptr, %struct.diff_options, %struct.diff_options, ptr, %struct.decoration, %struct.decoration, %struct.decoration, %struct.display_notes_opt, ptr, ptr, ptr, ptr, ptr, i32, ptr, i32, i32, i32, %struct.decoration, ptr, ptr, ptr, ptr, ptr, ptr, ptr, i32, ptr, i32, ptr, %struct.oidset }
%struct.object_array = type { i32, i32, ptr }
%struct.rev_cmdline_info = type { i32, i32, ptr }
%struct.list_objects_filter_options = type { %struct.strbuf, i32, i8, ptr, i64, i64, i32, i64, i64, ptr }
%struct.ref_exclusions = type { %struct.string_list, %struct.strvec, i8 }
%struct.string_list = type { ptr, i64, i64, i8, ptr }
%struct.pathspec = type { i32, i8, i32, i32, ptr }
%struct.date_mode = type { i32, i32, ptr }
%struct.ident_split = type { ptr, ptr, ptr, ptr, ptr, ptr, ptr, ptr }
%struct.grep_opt = type { ptr, ptr, ptr, ptr, ptr, ptr, i32, i32, i32, i32, i32, i32, i32, i32, i32, i32, i32, i32, i32, i32, i32, i32, i32, i32, i32, i32, i32, i32, i32, i32, i32, i32, [9 x [75 x i8]], i32, i32, i32, i32, i32, i32, i32, ptr, ptr, ptr }
%struct.diff_options = type { ptr, ptr, i32, i32, ptr, i32, ptr, i64, i64, ptr, ptr, ptr, ptr, %struct.diff_flags, i32, i32, i32, i32, i32, i32, i32, i32, i32, i32, i32, i32, i32, i32, i32, i32, i32, i32, i32, i32, i32, i32, ptr, i32, ptr, i32, i32, ptr, i64, i64, i32, i32, i32, i32, ptr, i32, i32, ptr, i32, i32, ptr, ptr, i32, [3 x i8], %struct.pathspec, ptr, ptr, ptr, ptr, ptr, ptr, ptr, ptr, i32, ptr, i32, i32, ptr, ptr, i32 }
%struct.diff_flags = type { i32, i32, i32, i32, i32, i32, i32, i32, i32, i32, i32, i32, i32, i32, i32, i32, i32, i32, i32, i32, i32, i32, i32, i32, i32, i32, i32, i32, i32, i32, i32, i32, i32, i32, i32 }
%struct.display_notes_opt = type { i32, %struct.string_list }
%struct.decoration = type { ptr, i32, i32, ptr }
%struct.treesame_state = type { i32, [0 x i8] }

@.str.236 = private unnamed_addr constant [20 x i8] c"compact_treesame %u\00", align 1
@.str.237 = private unnamed_addr constant [34 x i8] c"compact_treesame parents mismatch\00", align 1

; Function Attrs: nounwind uwtable
define internal i32 @compact_treesame(ptr noundef %0, ptr noundef %1, i32 noundef %2) #0 {
  %4 = alloca i32, align 4
  %5 = alloca ptr, align 8
  %6 = alloca ptr, align 8
  %7 = alloca i32, align 4
  %8 = alloca ptr, align 8
  %9 = alloca i32, align 4
  %10 = alloca i32, align 4
  store ptr %0, ptr %5, align 8, !tbaa !88
  store ptr %1, ptr %6, align 8, !tbaa !24
  store i32 %2, ptr %7, align 4, !tbaa !9
  call void @llvm.lifetime.start.p0(i64 8, ptr %8) #12
  call void @llvm.lifetime.start.p0(i64 4, ptr %9) #12
  %11 = load ptr, ptr %6, align 8, !tbaa !24
  %12 = getelementptr inbounds nuw %struct.commit, ptr %11, i32 0, i32 2
  %13 = load ptr, ptr %12, align 8, !tbaa !90
  %14 = icmp ne ptr %13, null
  br i1 %14, label %59, label %15

15:                                               ; preds = %3
  %16 = load i32, ptr %7, align 4, !tbaa !9
  %17 = icmp ne i32 %16, 0
  br i1 %17, label %18, label %20

18:                                               ; preds = %15
  %19 = load i32, ptr %7, align 4, !tbaa !9
  call void (ptr, ...) @die(ptr noundef @.str.236, i32 noundef %19) #13
  unreachable

20:                                               ; preds = %15
  %21 = load ptr, ptr %6, align 8, !tbaa !24
  %22 = getelementptr inbounds nuw %struct.commit, ptr %21, i32 0, i32 0
  %23 = load i32, ptr %22, align 8
  %24 = lshr i32 %23, 4
  %25 = and i32 %24, 4
  %26 = icmp ne i32 %25, 0
  %27 = xor i1 %26, true
  %28 = xor i1 %27, true
  %29 = zext i1 %28 to i32
  store i32 %29, ptr %9, align 4, !tbaa !9
  %30 = load ptr, ptr %5, align 8, !tbaa !88
  %31 = load ptr, ptr %6, align 8, !tbaa !24
  %32 = load i32, ptr %7, align 4, !tbaa !9
  %33 = call i32 @rev_same_tree_as_empty(ptr noundef %30, ptr noundef %31, i32 noundef %32)
  %34 = icmp ne i32 %33, 0
  br i1 %34, label %35, label %46

35:                                               ; preds = %20
  %36 = load ptr, ptr %6, align 8, !tbaa !24
  %37 = getelementptr inbounds nuw %struct.commit, ptr %36, i32 0, i32 0
  %38 = load i32, ptr %37, align 8
  %39 = lshr i32 %38, 4
  %40 = or i32 %39, 4
  %41 = load i32, ptr %37, align 8
  %42 = and i32 %40, 268435455
  %43 = shl i32 %42, 4
  %44 = and i32 %41, 15
  %45 = or i32 %44, %43
  store i32 %45, ptr %37, align 8
  br label %57

46:                                               ; preds = %20
  %47 = load ptr, ptr %6, align 8, !tbaa !24
  %48 = getelementptr inbounds nuw %struct.commit, ptr %47, i32 0, i32 0
  %49 = load i32, ptr %48, align 8
  %50 = lshr i32 %49, 4
  %51 = and i32 %50, -5
  %52 = load i32, ptr %48, align 8
  %53 = and i32 %51, 268435455
  %54 = shl i32 %53, 4
  %55 = and i32 %52, 15
  %56 = or i32 %55, %54
  store i32 %56, ptr %48, align 8
  br label %57

57:                                               ; preds = %46, %35
  %58 = load i32, ptr %9, align 4, !tbaa !9
  store i32 %58, ptr %4, align 4
  store i32 1, ptr %10, align 4
  br label %161

59:                                               ; preds = %3
  %60 = load ptr, ptr %5, align 8, !tbaa !88
  %61 = getelementptr inbounds nuw %struct.rev_info, ptr %60, i32 0, i32 58
  %62 = load ptr, ptr %6, align 8, !tbaa !24
  %63 = getelementptr inbounds nuw %struct.commit, ptr %62, i32 0, i32 0
  %64 = call ptr @lookup_decoration(ptr noundef %61, ptr noundef %63)
  store ptr %64, ptr %8, align 8, !tbaa !380
  %65 = load ptr, ptr %8, align 8, !tbaa !380
  %66 = icmp ne ptr %65, null
  br i1 %66, label %67, label %73

67:                                               ; preds = %59
  %68 = load i32, ptr %7, align 4, !tbaa !9
  %69 = load ptr, ptr %8, align 8, !tbaa !380
  %70 = getelementptr inbounds nuw %struct.treesame_state, ptr %69, i32 0, i32 0
  %71 = load i32, ptr %70, align 4, !tbaa !9
  %72 = icmp uge i32 %68, %71
  br i1 %72, label %73, label %75

73:                                               ; preds = %67, %59
  %74 = load i32, ptr %7, align 4, !tbaa !9
  call void (ptr, ...) @die(ptr noundef @.str.236, i32 noundef %74) #13
  unreachable

75:                                               ; preds = %67
  %76 = load ptr, ptr %8, align 8, !tbaa !380
  %77 = getelementptr inbounds nuw %struct.treesame_state, ptr %76, i32 0, i32 1
  %78 = load i32, ptr %7, align 4, !tbaa !9
  %79 = zext i32 %78 to i64
  %80 = getelementptr inbounds nuw [0 x i8], ptr %77, i64 0, i64 %79
  %81 = load i8, ptr %80, align 1, !tbaa !41
  %82 = zext i8 %81 to i32
  store i32 %82, ptr %9, align 4, !tbaa !9
  %83 = load ptr, ptr %8, align 8, !tbaa !380
  %84 = getelementptr inbounds nuw %struct.treesame_state, ptr %83, i32 0, i32 1
  %85 = getelementptr inbounds [0 x i8], ptr %84, i64 0, i64 0
  %86 = load i32, ptr %7, align 4, !tbaa !9
  %87 = zext i32 %86 to i64
  %88 = getelementptr inbounds nuw i8, ptr %85, i64 %87
  %89 = load ptr, ptr %8, align 8, !tbaa !380
  %90 = getelementptr inbounds nuw %struct.treesame_state, ptr %89, i32 0, i32 1
  %91 = getelementptr inbounds [0 x i8], ptr %90, i64 0, i64 0
  %92 = load i32, ptr %7, align 4, !tbaa !9
  %93 = zext i32 %92 to i64
  %94 = getelementptr inbounds nuw i8, ptr %91, i64 %93
  %95 = getelementptr inbounds i8, ptr %94, i64 1
  %96 = load ptr, ptr %8, align 8, !tbaa !380
  %97 = getelementptr inbounds nuw %struct.treesame_state, ptr %96, i32 0, i32 0
  %98 = load i32, ptr %97, align 4, !tbaa !9
  %99 = load i32, ptr %7, align 4, !tbaa !9
  %100 = sub i32 %98, %99
  %101 = sub i32 %100, 1
  %102 = zext i32 %101 to i64
  call void @llvm.memmove.p0.p0.i64(ptr align 1 %88, ptr align 1 %95, i64 %102, i1 false)
  %103 = load ptr, ptr %8, align 8, !tbaa !380
  %104 = getelementptr inbounds nuw %struct.treesame_state, ptr %103, i32 0, i32 0
  %105 = load i32, ptr %104, align 4, !tbaa !9
  %106 = add i32 %105, -1
  store i32 %106, ptr %104, align 4, !tbaa !9
  %107 = icmp eq i32 %106, 1
  br i1 %107, label %108, label %159

108:                                              ; preds = %75
  %109 = load ptr, ptr %6, align 8, !tbaa !24
  %110 = getelementptr inbounds nuw %struct.commit, ptr %109, i32 0, i32 2
  %111 = load ptr, ptr %110, align 8, !tbaa !90
  %112 = getelementptr inbounds nuw %struct.commit_list, ptr %111, i32 0, i32 1
  %113 = load ptr, ptr %112, align 8, !tbaa !94
  %114 = icmp ne ptr %113, null
  br i1 %114, label %115, label %116

115:                                              ; preds = %108
  call void (ptr, ...) @die(ptr noundef @.str.237) #13
  unreachable

116:                                              ; preds = %108
  %117 = load ptr, ptr %8, align 8, !tbaa !380
  %118 = getelementptr inbounds nuw %struct.treesame_state, ptr %117, i32 0, i32 1
  %119 = getelementptr inbounds [0 x i8], ptr %118, i64 0, i64 0
  %120 = load i8, ptr %119, align 4, !tbaa !41
  %121 = zext i8 %120 to i32
  %122 = icmp ne i32 %121, 0
  br i1 %122, label %123, label %142

123:                                              ; preds = %116
  %124 = load ptr, ptr %5, align 8, !tbaa !88
  %125 = getelementptr inbounds nuw %struct.rev_info, ptr %124, i32 0, i32 15
  %126 = load i64, ptr %125, align 8
  %127 = lshr i64 %126, 2
  %128 = and i64 %127, 1
  %129 = trunc i64 %128 to i32
  %130 = icmp ne i32 %129, 0
  br i1 %130, label %131, label %142

131:                                              ; preds = %123
  %132 = load ptr, ptr %6, align 8, !tbaa !24
  %133 = getelementptr inbounds nuw %struct.commit, ptr %132, i32 0, i32 0
  %134 = load i32, ptr %133, align 8
  %135 = lshr i32 %134, 4
  %136 = or i32 %135, 4
  %137 = load i32, ptr %133, align 8
  %138 = and i32 %136, 268435455
  %139 = shl i32 %138, 4
  %140 = and i32 %137, 15
  %141 = or i32 %140, %139
  store i32 %141, ptr %133, align 8
  br label %153

142:                                              ; preds = %123, %116
  %143 = load ptr, ptr %6, align 8, !tbaa !24
  %144 = getelementptr inbounds nuw %struct.commit, ptr %143, i32 0, i32 0
  %145 = load i32, ptr %144, align 8
  %146 = lshr i32 %145, 4
  %147 = and i32 %146, -5
  %148 = load i32, ptr %144, align 8
  %149 = and i32 %147, 268435455
  %150 = shl i32 %149, 4
  %151 = and i32 %148, 15
  %152 = or i32 %151, %150
  store i32 %152, ptr %144, align 8
  br label %153

153:                                              ; preds = %142, %131
  %154 = load ptr, ptr %5, align 8, !tbaa !88
  %155 = getelementptr inbounds nuw %struct.rev_info, ptr %154, i32 0, i32 58
  %156 = load ptr, ptr %6, align 8, !tbaa !24
  %157 = getelementptr inbounds nuw %struct.commit, ptr %156, i32 0, i32 0
  %158 = call ptr @add_decoration(ptr noundef %155, ptr noundef %157, ptr noundef null)
  call void @free(ptr noundef %158) #12
  br label %159

159:                                              ; preds = %153, %75
  %160 = load i32, ptr %9, align 4, !tbaa !9
  store i32 %160, ptr %4, align 4
  store i32 1, ptr %10, align 4
  br label %161

161:                                              ; preds = %159, %57
  call void @llvm.lifetime.end.p0(i64 4, ptr %9) #12
  call void @llvm.lifetime.end.p0(i64 8, ptr %8) #12
  %162 = load i32, ptr %4, align 4
  ret i32 %162
}