; Function Attrs: nounwind uwtable
define internal fastcc void @compact_treesame(ptr noundef %0, ptr noundef %1, i32 noundef %2) unnamed_addr #2 {
  %4 = getelementptr inbounds nuw i8, ptr %1, i64 48
  %5 = load ptr, ptr %4, align 8, !tbaa !363
  %.not = icmp eq ptr %5, null
  br i1 %.not, label %6, label %12

6:                                                ; preds = %3
  %.not36 = icmp eq i32 %2, 0
  br i1 %.not36, label %8, label %7

7:                                                ; preds = %6
  tail call void (ptr, ...) @die(ptr noundef nonnull @.str.236, i32 noundef %2) #28
  unreachable

8:                                                ; preds = %6
  %9 = tail call fastcc i32 @rev_same_tree_as_empty(ptr noundef %0, ptr noundef nonnull %1, i32 noundef 0)
  %.not37 = icmp eq i32 %9, 0
  %10 = load i32, ptr %1, align 8
  %11 = and i32 %10, -65
  %masksel = select i1 %.not37, i32 0, i32 64
  %storemerge = or disjoint i32 %11, %masksel
  store i32 %storemerge, ptr %1, align 8
  br label %47

12:                                               ; preds = %3
  %13 = getelementptr inbounds nuw i8, ptr %0, i64 2712
  %14 = tail call ptr @lookup_decoration(ptr noundef nonnull %13, ptr noundef nonnull %1) #26
  %.not38 = icmp eq ptr %14, null
  br i1 %.not38, label %17, label %15

15:                                               ; preds = %12
  %16 = load i32, ptr %14, align 4, !tbaa !42
  %.not39 = icmp ult i32 %2, %16
  br i1 %.not39, label %18, label %17

17:                                               ; preds = %15, %12
  tail call void (ptr, ...) @die(ptr noundef nonnull @.str.236, i32 noundef %2) #28
  unreachable

18:                                               ; preds = %15
  %19 = getelementptr inbounds nuw i8, ptr %14, i64 4
  %20 = zext i32 %2 to i64
  %21 = getelementptr inbounds nuw [0 x i8], ptr %19, i64 0, i64 %20
  %22 = getelementptr inbounds nuw i8, ptr %21, i64 1
  %23 = xor i32 %2, -1
  %24 = add i32 %16, %23
  %25 = zext i32 %24 to i64
  tail call void @llvm.memmove.p0.p0.i64(ptr nonnull align 1 %21, ptr nonnull align 1 %22, i64 %25, i1 false)
  %26 = add i32 %16, -1
  store i32 %26, ptr %14, align 4, !tbaa !42
  %27 = icmp eq i32 %26, 1
  br i1 %27, label %28, label %47

28:                                               ; preds = %18
  %29 = load ptr, ptr %4, align 8, !tbaa !363
  %30 = getelementptr inbounds nuw i8, ptr %29, i64 8
  %31 = load ptr, ptr %30, align 8, !tbaa !251
  %.not40 = icmp eq ptr %31, null
  br i1 %.not40, label %33, label %32

32:                                               ; preds = %28
  tail call void (ptr, ...) @die(ptr noundef nonnull @.str.237) #28
  unreachable

33:                                               ; preds = %28
  %34 = load i8, ptr %19, align 4, !tbaa !28
  %.not41 = icmp eq i8 %34, 0
  br i1 %.not41, label %42, label %35

35:                                               ; preds = %33
  %36 = getelementptr inbounds nuw i8, ptr %0, i64 288
  %37 = load i64, ptr %36, align 8
  %38 = and i64 %37, 4
  %.not42 = icmp eq i64 %38, 0
  br i1 %.not42, label %42, label %39

39:                                               ; preds = %35
  %40 = load i32, ptr %1, align 8
  %41 = or i32 %40, 64
  br label %45

42:                                               ; preds = %35, %33
  %43 = load i32, ptr %1, align 8
  %44 = and i32 %43, -65
  br label %45

45:                                               ; preds = %42, %39
  %storemerge43 = phi i32 [ %44, %42 ], [ %41, %39 ]
  store i32 %storemerge43, ptr %1, align 8
  %46 = tail call ptr @add_decoration(ptr noundef nonnull %13, ptr noundef nonnull %1, ptr noundef null) #26
  tail call void @free(ptr noundef %46) #26
  br label %47

47:                                               ; preds = %18, %45, %8
  ret void
}